(lp0
(lp1
S'I'
p2
aS'n'
p3
aS' '
p4
aS'a'
p5
ag4
aS'h'
p6
aS'o'
p7
aS'l'
p8
aS'e'
p9
ag4
aS'i'
p10
ag3
ag4
aS't'
p11
ag6
ag9
ag4
aS'g'
p12
aS'r'
p13
ag7
aS'u'
p14
ag3
aS'd'
p15
ag4
ag11
ag6
ag9
ag13
ag9
ag4
ag8
ag10
aS'v'
p16
ag9
ag15
ag4
ag5
ag4
ag6
ag7
aS'b'
p17
ag17
ag10
ag11
ag4
aS'.'
p18
aa(lp19
S'N'
p20
ag7
ag11
ag4
ag5
ag4
ag3
ag5
aS's'
p21
ag11
aS'y'
p22
ag4
aS','
p23
ag4
ag15
ag10
ag13
ag11
ag22
ag4
ag23
ag4
aS'w'
p24
ag9
ag11
ag4
ag6
ag7
ag8
ag9
ag4
ag23
aa(lp25
S'f'
p26
ag10
ag8
ag8
ag9
ag15
ag4
ag24
ag10
ag11
ag6
ag4
ag11
ag6
ag9
ag4
ag9
ag3
ag15
ag21
ag4
ag7
ag26
ag4
ag24
ag7
ag13
aS'm'
p27
ag21
ag4
ag5
ag3
ag15
ag4
ag5
ag3
ag4
ag7
ag7
aS'z'
p28
ag22
ag4
ag21
ag27
ag9
ag8
ag8
ag4
ag23
aa(lp29
g3
ag7
ag13
ag4
ag22
ag9
ag11
ag4
ag5
ag4
ag15
ag13
ag22
ag4
ag23
ag4
ag17
ag5
ag13
ag9
ag4
ag23
ag4
ag21
ag5
ag3
ag15
ag22
ag4
ag6
ag7
ag8
ag9
aa(lp30
g24
ag10
ag11
ag6
ag4
ag3
ag7
ag11
ag6
ag10
ag3
ag12
ag4
ag10
ag3
ag4
ag10
ag11
ag4
ag11
ag7
ag4
ag21
ag10
ag11
ag4
ag15
ag7
ag24
ag3
ag4
ag7
ag3
ag4
ag7
ag13
ag4
ag11
ag7
ag4
ag9
ag5
ag11
ag4
aS':'
p31
aa(lp32
g10
ag11
ag4
ag24
ag5
ag21
ag4
ag5
ag4
ag6
ag7
ag17
ag17
ag10
ag11
aS'-'
p33
ag6
ag7
ag8
ag9
ag4
ag5
ag3
ag15
ag4
ag11
ag6
ag5
ag11
ag4
ag27
ag9
ag5
ag3
ag21
ag4
aS'c'
p34
ag7
ag27
ag26
ag7
ag13
ag11
ag4
ag18
aa(lp35
g2
ag11
ag4
ag6
ag5
ag15
ag4
ag5
ag4
aS'p'
p36
ag9
ag13
ag26
ag9
ag34
ag11
ag8
ag22
ag4
ag13
ag7
ag14
ag3
ag15
ag4
ag15
ag7
ag7
ag13
ag4
ag8
ag10
aS'k'
p37
ag9
ag4
ag5
ag4
ag36
ag7
ag13
ag11
ag6
ag7
ag8
ag9
ag4
ag23
aa(lp38
g36
ag5
ag10
ag3
ag11
ag9
ag15
ag4
ag12
ag13
ag9
ag9
ag3
ag4
ag23
aa(lp39
g24
ag10
ag11
ag6
ag4
ag5
ag4
ag21
ag6
ag10
ag3
ag22
ag4
ag22
ag9
ag8
ag8
ag7
ag24
ag4
ag17
ag13
ag5
ag21
ag21
ag4
ag37
ag3
ag7
ag17
ag4
ag10
ag3
ag4
ag11
ag6
ag9
ag4
ag9
aS'x'
p40
ag5
ag34
ag11
ag4
ag27
ag10
ag15
ag15
ag8
ag9
ag4
ag18
aa(lp41
S'T'
p42
ag6
ag9
ag4
ag15
ag7
ag7
ag13
ag4
ag7
ag36
ag9
ag3
ag9
ag15
ag4
ag7
ag3
ag4
ag11
ag7
ag4
ag5
ag4
ag11
ag14
ag17
ag9
ag33
ag21
ag6
ag5
ag36
ag9
ag15
ag4
ag6
ag5
ag8
ag8
ag4
ag8
ag10
ag37
ag9
ag4
ag5
ag4
ag11
ag14
ag3
ag3
ag9
ag8
ag4
aS';'
p43
aa(lp44
g5
ag4
ag16
ag9
ag13
ag22
ag4
ag34
ag7
ag27
ag26
ag7
ag13
ag11
ag5
ag17
ag8
ag9
ag4
ag11
ag14
ag3
ag3
ag9
ag8
ag4
ag24
ag10
ag11
ag6
ag7
ag14
ag11
ag4
ag21
ag27
ag7
ag37
ag9
ag4
ag23
aa(lp45
g24
ag10
ag11
ag6
ag4
ag36
ag5
ag3
ag9
ag8
ag8
ag9
ag15
ag4
ag24
ag5
ag8
ag8
ag21
ag4
ag23
aa(lp46
g5
ag3
ag15
ag4
ag26
ag8
ag7
ag7
ag13
ag21
ag4
ag11
ag10
ag8
ag9
ag15
ag4
ag5
ag3
ag15
ag4
ag34
ag5
ag13
ag36
ag9
ag11
ag9
ag15
ag4
ag23
aa(lp47
g36
ag13
ag7
ag16
ag10
ag15
ag9
ag15
ag4
ag24
ag10
ag11
ag6
ag4
ag36
ag7
ag8
ag10
ag21
ag6
ag9
ag15
ag4
ag34
ag6
ag5
ag10
ag13
ag21
ag4
ag23
aa(lp48
g5
ag3
ag15
ag4
ag8
ag7
ag11
ag21
ag4
ag5
ag3
ag15
ag4
ag8
ag7
ag11
ag21
ag4
ag7
ag26
ag4
ag36
ag9
ag12
ag21
ag4
ag26
ag7
ag13
ag4
ag6
ag5
ag11
ag21
ag4
ag5
ag3
ag15
ag4
ag34
ag7
ag5
ag11
ag21
ag4
ag33
aa(lp49
g11
ag6
ag9
ag4
ag6
ag7
ag17
ag17
ag10
ag11
ag4
ag24
ag5
ag21
ag4
ag26
ag7
ag3
ag15
ag4
ag7
ag26
ag4
ag16
ag10
ag21
ag10
ag11
ag7
ag13
ag21
ag4
aa.